target datalayout = "e-m:e-p270:32:32-p271:32:32-p272:64:64-i64:64-i128:128-f80:128-n8:16:32:64-S128"
target triple = "x86_64-pc-linux-gnu"

@.str.3 = private unnamed_addr constant [10 x i8] c"Integer()\00", align 1

; Function Attrs: inlinehint nounwind sspstrong willreturn memory(none) uwtable
define internal zeroext i1 @RB_NIL_P(i64 noundef %0) #6 {
  %2 = alloca i64, align 8
  store i64 %0, ptr %2, align 8, !tbaa !7
  %3 = load i64, ptr %2, align 8, !tbaa !7
  %4 = icmp eq i64 %3, 4
  ret i1 %4
}

; Function Attrs: nounwind sspstrong uwtable
define internal i64 @rb_cstr_parse_inum(ptr noundef %0, i64 noundef %1, ptr noundef %2, i32 noundef %3) #0 {
  %5 = alloca ptr, align 8
  %6 = alloca i64, align 8
  %7 = alloca ptr, align 8
  %8 = alloca i32, align 4
  store ptr %0, ptr %5, align 8, !tbaa !87
  store i64 %1, ptr %6, align 8, !tbaa !7
  store ptr %2, ptr %7, align 8, !tbaa !101
  store i32 %3, ptr %8, align 4, !tbaa !19
  %9 = load ptr, ptr %5, align 8, !tbaa !87
  %10 = load i64, ptr %6, align 8, !tbaa !7
  %11 = load ptr, ptr %7, align 8, !tbaa !101
  %12 = load i32, ptr %8, align 4, !tbaa !19
  %13 = call i64 @rb_int_parse_cstr(ptr noundef %9, i64 noundef %10, ptr noundef %11, ptr noundef null, i32 noundef %12, i32 noundef 7)
  ret i64 %13
}

; Function Attrs: nounwind sspstrong uwtable
define dso_local i64 @rb_cstr_to_inum(ptr noundef nonnull %0, i32 noundef %1, i32 noundef %2) #0 {
  %4 = alloca ptr, align 8
  %5 = alloca i32, align 4
  %6 = alloca i32, align 4
  %7 = alloca ptr, align 8
  %8 = alloca i64, align 8
  store ptr %0, ptr %4, align 8, !tbaa !87
  store i32 %1, ptr %5, align 4, !tbaa !19
  store i32 %2, ptr %6, align 4, !tbaa !19
  call void @llvm.lifetime.start.p0(i64 8, ptr %7) #24
  call void @llvm.lifetime.start.p0(i64 8, ptr %8) #24
  %9 = load ptr, ptr %4, align 8, !tbaa !87
  %10 = load i32, ptr %6, align 4, !tbaa !19
  %11 = icmp ne i32 %10, 0
  br i1 %11, label %12, label %13

12:                                               ; preds = %3
  br label %14

13:                                               ; preds = %3
  br label %14

14:                                               ; preds = %13, %12
  %15 = phi ptr [ null, %12 ], [ %7, %13 ]
  %16 = load i32, ptr %5, align 4, !tbaa !19
  %17 = call i64 @rb_cstr_parse_inum(ptr noundef %9, i64 noundef -1, ptr noundef %15, i32 noundef %16)
  store i64 %17, ptr %8, align 8, !tbaa !7
  %18 = load i64, ptr %8, align 8, !tbaa !7
  %19 = call zeroext i1 @RB_NIL_P(i64 noundef %18) #30
  br i1 %19, label %20, label %26

20:                                               ; preds = %14
  %21 = load i32, ptr %6, align 4, !tbaa !19
  %22 = icmp ne i32 %21, 0
  br i1 %22, label %23, label %25

23:                                               ; preds = %20
  %24 = load ptr, ptr %4, align 8, !tbaa !87
  call void @rb_invalid_str(ptr noundef %24, ptr noundef @.str.3) #29
  unreachable

25:                                               ; preds = %20
  store i64 1, ptr %8, align 8, !tbaa !7
  br label %26

26:                                               ; preds = %25, %14
  %27 = load i64, ptr %8, align 8, !tbaa !7
  call void @llvm.lifetime.end.p0(i64 8, ptr %8) #24
  call void @llvm.lifetime.end.p0(i64 8, ptr %7) #24
  ret i64 %27
}