; Function Attrs: nounwind sspstrong uwtable
define dso_local i64 @rb_cstr_to_inum(ptr noundef nonnull %0, i32 noundef %1, i32 noundef %2) local_unnamed_addr #0 {
  %4 = alloca ptr, align 8
  call void @llvm.lifetime.start.p0(i64 8, ptr nonnull %4) #27
  %.not = icmp eq i32 %2, 0
  %. = select i1 %.not, ptr %4, ptr null
  %5 = call i64 @rb_int_parse_cstr(ptr noundef nonnull %0, i64 noundef -1, ptr noundef %., ptr noundef null, i32 noundef %1, i32 noundef 7)
  %6 = icmp ne i64 %5, 4
  %brmerge = or i1 %.not, %6
  br i1 %brmerge, label %8, label %7

7:                                                ; preds = %3
  call void @rb_invalid_str(ptr noundef nonnull %0, ptr noundef nonnull @.str.3) #29
  unreachable

8:                                                ; preds = %3
  %.mux = select i1 %6, i64 %5, i64 1
  call void @llvm.lifetime.end.p0(i64 8, ptr nonnull %4) #27
  ret i64 %.mux
}